target datalayout = "e-m:e-p270:32:32-p271:32:32-p272:64:64-i64:64-i128:128-f80:128-n8:16:32:64-S128"
target triple = "x86_64-pc-linux-gnu"

%struct.ParseState = type { ptr, ptr, i32, i32, ptr, ptr, ptr, ptr, ptr, ptr, i8, ptr, ptr, ptr, ptr, ptr, ptr, i8, ptr, i32, i32, ptr, ptr, i8, i8, ptr, i8, i8, i8, i8, i8, ptr, ptr, ptr, ptr, ptr, ptr }
%struct.List = type { i32, i32, i32, ptr, [0 x %union.ListCell] }
%union.ListCell = type { ptr }
%struct.ParseNamespaceItem = type { ptr, ptr, i32, ptr, ptr, i8, i8, i8, i8, i32 }
%struct.RangeTblEntry = type { i32, ptr, ptr, i32, i32, i8, i8, i32, i32, ptr, ptr, i8, i32, i32, ptr, ptr, ptr, ptr, ptr, i8, ptr, ptr, ptr, i32, i8, ptr, ptr, ptr, ptr, double, ptr, i8, i8, ptr }
%struct.Alias = type { i32, ptr, ptr }
%struct.ParseNamespaceColumn = type { i32, i16, i32, i32, i32, i32, i32, i16, i8 }
%struct.FormData_pg_attribute = type { i32, %struct.nameData, i32, i16, i16, i32, i16, i8, i8, i8, i8, i8, i8, i8, i8, i8, i8, i8, i16, i32 }
%struct.nameData = type { [64 x i8] }
%struct.RTEPermissionInfo = type { i32, i32, i8, i64, i32, ptr, ptr, ptr }
%struct.Node = type { i32 }
%struct.RelationData = type { %struct.RelFileLocator, ptr, i32, i32, i8, i8, i8, i8, i8, i32, i32, i32, i32, ptr, ptr, i32, %struct.LockInfoData, ptr, ptr, ptr, ptr, ptr, i8, ptr, ptr, ptr, ptr, ptr, ptr, i32, ptr, i8, ptr, ptr, i32, i8, i32, ptr, i8, ptr, ptr, ptr, ptr, ptr, ptr, ptr, i32, ptr, ptr, ptr, ptr, ptr, ptr, ptr, ptr, ptr, ptr, ptr, ptr, ptr, ptr, ptr, ptr, ptr, ptr, ptr, i32, i8, ptr }
%struct.RelFileLocator = type { i32, i32, i32 }
%struct.LockInfoData = type { %struct.LockRelId }
%struct.LockRelId = type { i32, i32 }
%struct.FormData_pg_class = type { i32, %struct.nameData, i32, i32, i32, i32, i32, i32, i32, i32, float, i32, i32, i8, i8, i8, i8, i16, i16, i8, i8, i8, i8, i8, i8, i8, i8, i32, i32, i32 }
%struct.TupleDescData = type { i32, i32, i32, i32, ptr, [0 x %struct.CompactAttribute] }
%struct.CompactAttribute = type { i32, i16, i8, i8, i8, i8, i8, i8, i8 }

; Function Attrs: inlinehint nounwind uwtable
define internal ptr @TupleDescAttr(ptr noundef %0, i32 noundef %1) #6 {
  %3 = alloca ptr, align 8
  %4 = alloca i32, align 4
  %5 = alloca ptr, align 8
  store ptr %0, ptr %3, align 8
  store i32 %1, ptr %4, align 4
  call void @llvm.lifetime.start.p0(i64 8, ptr %5) #8
  %6 = load ptr, ptr %3, align 8
  %7 = load ptr, ptr %3, align 8
  %8 = getelementptr inbounds nuw %struct.TupleDescData, ptr %7, i32 0, i32 0
  %9 = load i32, ptr %8, align 8
  %10 = sext i32 %9 to i64
  %11 = mul i64 %10, 16
  %12 = add i64 24, %11
  %13 = getelementptr inbounds nuw i8, ptr %6, i64 %12
  store ptr %13, ptr %5, align 8
  %14 = load ptr, ptr %5, align 8
  %15 = load i32, ptr %4, align 4
  %16 = sext i32 %15 to i64
  %17 = getelementptr inbounds %struct.FormData_pg_attribute, ptr %14, i64 %16
  call void @llvm.lifetime.end.p0(i64 8, ptr %5) #8
  ret ptr %17
}

; Function Attrs: nounwind uwtable
define internal ptr @buildNSItemFromTupleDesc(ptr noundef %0, i32 noundef %1, ptr noundef %2, ptr noundef %3) #0 {
  %5 = alloca ptr, align 8
  %6 = alloca i32, align 4
  %7 = alloca ptr, align 8
  %8 = alloca ptr, align 8
  %9 = alloca ptr, align 8
  %10 = alloca ptr, align 8
  %11 = alloca i32, align 4
  %12 = alloca i32, align 4
  %13 = alloca ptr, align 8
  %14 = alloca i32, align 4
  store ptr %0, ptr %5, align 8
  store i32 %1, ptr %6, align 4
  store ptr %2, ptr %7, align 8
  store ptr %3, ptr %8, align 8
  call void @llvm.lifetime.start.p0(i64 8, ptr %9) #8
  call void @llvm.lifetime.start.p0(i64 8, ptr %10) #8
  call void @llvm.lifetime.start.p0(i64 4, ptr %11) #8
  %15 = load ptr, ptr %8, align 8
  %16 = getelementptr inbounds nuw %struct.TupleDescData, ptr %15, i32 0, i32 0
  %17 = load i32, ptr %16, align 8
  store i32 %17, ptr %11, align 4
  call void @llvm.lifetime.start.p0(i64 4, ptr %12) #8
  %18 = load i32, ptr %11, align 4
  %19 = sext i32 %18 to i64
  %20 = mul i64 %19, 32
  %21 = call ptr @palloc0(i64 noundef %20)
  store ptr %21, ptr %10, align 8
  store i32 0, ptr %12, align 4
  br label %22

22:                                               ; preds = %91, %4
  %23 = load i32, ptr %12, align 4
  %24 = load i32, ptr %11, align 4
  %25 = icmp slt i32 %23, %24
  br i1 %25, label %26, label %94

26:                                               ; preds = %22
  call void @llvm.lifetime.start.p0(i64 8, ptr %13) #8
  %27 = load ptr, ptr %8, align 8
  %28 = load i32, ptr %12, align 4
  %29 = call ptr @TupleDescAttr(ptr noundef %27, i32 noundef %28)
  store ptr %29, ptr %13, align 8
  %30 = load ptr, ptr %13, align 8
  %31 = getelementptr inbounds nuw %struct.FormData_pg_attribute, ptr %30, i32 0, i32 16
  %32 = load i8, ptr %31, align 1, !range !6, !noundef !7
  %33 = trunc i8 %32 to i1
  br i1 %33, label %34, label %35

34:                                               ; preds = %26
  store i32 4, ptr %14, align 4
  br label %88

35:                                               ; preds = %26
  %36 = load i32, ptr %6, align 4
  %37 = load ptr, ptr %10, align 8
  %38 = load i32, ptr %12, align 4
  %39 = sext i32 %38 to i64
  %40 = getelementptr inbounds %struct.ParseNamespaceColumn, ptr %37, i64 %39
  %41 = getelementptr inbounds nuw %struct.ParseNamespaceColumn, ptr %40, i32 0, i32 0
  store i32 %36, ptr %41, align 4
  %42 = load i32, ptr %12, align 4
  %43 = add i32 %42, 1
  %44 = trunc i32 %43 to i16
  %45 = load ptr, ptr %10, align 8
  %46 = load i32, ptr %12, align 4
  %47 = sext i32 %46 to i64
  %48 = getelementptr inbounds %struct.ParseNamespaceColumn, ptr %45, i64 %47
  %49 = getelementptr inbounds nuw %struct.ParseNamespaceColumn, ptr %48, i32 0, i32 1
  store i16 %44, ptr %49, align 4
  %50 = load ptr, ptr %13, align 8
  %51 = getelementptr inbounds nuw %struct.FormData_pg_attribute, ptr %50, i32 0, i32 2
  %52 = load i32, ptr %51, align 4
  %53 = load ptr, ptr %10, align 8
  %54 = load i32, ptr %12, align 4
  %55 = sext i32 %54 to i64
  %56 = getelementptr inbounds %struct.ParseNamespaceColumn, ptr %53, i64 %55
  %57 = getelementptr inbounds nuw %struct.ParseNamespaceColumn, ptr %56, i32 0, i32 2
  store i32 %52, ptr %57, align 4
  %58 = load ptr, ptr %13, align 8
  %59 = getelementptr inbounds nuw %struct.FormData_pg_attribute, ptr %58, i32 0, i32 5
  %60 = load i32, ptr %59, align 4
  %61 = load ptr, ptr %10, align 8
  %62 = load i32, ptr %12, align 4
  %63 = sext i32 %62 to i64
  %64 = getelementptr inbounds %struct.ParseNamespaceColumn, ptr %61, i64 %63
  %65 = getelementptr inbounds nuw %struct.ParseNamespaceColumn, ptr %64, i32 0, i32 3
  store i32 %60, ptr %65, align 4
  %66 = load ptr, ptr %13, align 8
  %67 = getelementptr inbounds nuw %struct.FormData_pg_attribute, ptr %66, i32 0, i32 19
  %68 = load i32, ptr %67, align 4
  %69 = load ptr, ptr %10, align 8
  %70 = load i32, ptr %12, align 4
  %71 = sext i32 %70 to i64
  %72 = getelementptr inbounds %struct.ParseNamespaceColumn, ptr %69, i64 %71
  %73 = getelementptr inbounds nuw %struct.ParseNamespaceColumn, ptr %72, i32 0, i32 4
  store i32 %68, ptr %73, align 4
  %74 = load i32, ptr %6, align 4
  %75 = load ptr, ptr %10, align 8
  %76 = load i32, ptr %12, align 4
  %77 = sext i32 %76 to i64
  %78 = getelementptr inbounds %struct.ParseNamespaceColumn, ptr %75, i64 %77
  %79 = getelementptr inbounds nuw %struct.ParseNamespaceColumn, ptr %78, i32 0, i32 6
  store i32 %74, ptr %79, align 4
  %80 = load i32, ptr %12, align 4
  %81 = add i32 %80, 1
  %82 = trunc i32 %81 to i16
  %83 = load ptr, ptr %10, align 8
  %84 = load i32, ptr %12, align 4
  %85 = sext i32 %84 to i64
  %86 = getelementptr inbounds %struct.ParseNamespaceColumn, ptr %83, i64 %85
  %87 = getelementptr inbounds nuw %struct.ParseNamespaceColumn, ptr %86, i32 0, i32 7
  store i16 %82, ptr %87, align 4
  store i32 0, ptr %14, align 4
  br label %88

88:                                               ; preds = %35, %34
  call void @llvm.lifetime.end.p0(i64 8, ptr %13) #8
  %89 = load i32, ptr %14, align 4
  switch i32 %89, label %124 [
    i32 0, label %90
    i32 4, label %91
  ]

90:                                               ; preds = %88
  br label %91

91:                                               ; preds = %90, %88
  %92 = load i32, ptr %12, align 4
  %93 = add i32 %92, 1
  store i32 %93, ptr %12, align 4
  br label %22, !llvm.loop !29

94:                                               ; preds = %22
  %95 = call ptr @palloc(i64 noundef 48)
  store ptr %95, ptr %9, align 8
  %96 = load ptr, ptr %5, align 8
  %97 = getelementptr inbounds nuw %struct.RangeTblEntry, ptr %96, i32 0, i32 2
  %98 = load ptr, ptr %97, align 8
  %99 = load ptr, ptr %9, align 8
  %100 = getelementptr inbounds nuw %struct.ParseNamespaceItem, ptr %99, i32 0, i32 0
  store ptr %98, ptr %100, align 8
  %101 = load ptr, ptr %5, align 8
  %102 = load ptr, ptr %9, align 8
  %103 = getelementptr inbounds nuw %struct.ParseNamespaceItem, ptr %102, i32 0, i32 1
  store ptr %101, ptr %103, align 8
  %104 = load i32, ptr %6, align 4
  %105 = load ptr, ptr %9, align 8
  %106 = getelementptr inbounds nuw %struct.ParseNamespaceItem, ptr %105, i32 0, i32 2
  store i32 %104, ptr %106, align 8
  %107 = load ptr, ptr %7, align 8
  %108 = load ptr, ptr %9, align 8
  %109 = getelementptr inbounds nuw %struct.ParseNamespaceItem, ptr %108, i32 0, i32 3
  store ptr %107, ptr %109, align 8
  %110 = load ptr, ptr %10, align 8
  %111 = load ptr, ptr %9, align 8
  %112 = getelementptr inbounds nuw %struct.ParseNamespaceItem, ptr %111, i32 0, i32 4
  store ptr %110, ptr %112, align 8
  %113 = load ptr, ptr %9, align 8
  %114 = getelementptr inbounds nuw %struct.ParseNamespaceItem, ptr %113, i32 0, i32 5
  store i8 1, ptr %114, align 8
  %115 = load ptr, ptr %9, align 8
  %116 = getelementptr inbounds nuw %struct.ParseNamespaceItem, ptr %115, i32 0, i32 6
  store i8 1, ptr %116, align 1
  %117 = load ptr, ptr %9, align 8
  %118 = getelementptr inbounds nuw %struct.ParseNamespaceItem, ptr %117, i32 0, i32 7
  store i8 0, ptr %118, align 2
  %119 = load ptr, ptr %9, align 8
  %120 = getelementptr inbounds nuw %struct.ParseNamespaceItem, ptr %119, i32 0, i32 8
  store i8 1, ptr %120, align 1
  %121 = load ptr, ptr %9, align 8
  %122 = getelementptr inbounds nuw %struct.ParseNamespaceItem, ptr %121, i32 0, i32 9
  store i32 0, ptr %122, align 4
  %123 = load ptr, ptr %9, align 8
  store i32 1, ptr %14, align 4
  call void @llvm.lifetime.end.p0(i64 4, ptr %12) #8
  call void @llvm.lifetime.end.p0(i64 4, ptr %11) #8
  call void @llvm.lifetime.end.p0(i64 8, ptr %10) #8
  call void @llvm.lifetime.end.p0(i64 8, ptr %9) #8
  ret ptr %123

124:                                              ; preds = %88
  unreachable
}

; Function Attrs: inlinehint nounwind uwtable
define internal i32 @list_length(ptr noundef %0) #6 {
  %2 = alloca ptr, align 8
  store ptr %0, ptr %2, align 8
  %3 = load ptr, ptr %2, align 8
  %4 = icmp ne ptr %3, null
  br i1 %4, label %5, label %9

5:                                                ; preds = %1
  %6 = load ptr, ptr %2, align 8
  %7 = getelementptr inbounds nuw %struct.List, ptr %6, i32 0, i32 1
  %8 = load i32, ptr %7, align 4
  br label %10

9:                                                ; preds = %1
  br label %10

10:                                               ; preds = %9, %5
  %11 = phi i32 [ %8, %5 ], [ 0, %9 ]
  ret i32 %11
}

; Function Attrs: nounwind uwtable
define dso_local ptr @addRTEPermissionInfo(ptr noundef %0, ptr noundef %1) #0 {
  %3 = alloca ptr, align 8
  %4 = alloca ptr, align 8
  %5 = alloca ptr, align 8
  store ptr %0, ptr %3, align 8
  store ptr %1, ptr %4, align 8
  call void @llvm.lifetime.start.p0(i64 8, ptr %5) #8
  %6 = call ptr @newNode(i64 noundef 56, i32 noundef 102)
  store ptr %6, ptr %5, align 8
  %7 = load ptr, ptr %4, align 8
  %8 = getelementptr inbounds nuw %struct.RangeTblEntry, ptr %7, i32 0, i32 4
  %9 = load i32, ptr %8, align 4
  %10 = load ptr, ptr %5, align 8
  %11 = getelementptr inbounds nuw %struct.RTEPermissionInfo, ptr %10, i32 0, i32 1
  store i32 %9, ptr %11, align 4
  %12 = load ptr, ptr %4, align 8
  %13 = getelementptr inbounds nuw %struct.RangeTblEntry, ptr %12, i32 0, i32 5
  %14 = load i8, ptr %13, align 8, !range !6, !noundef !7
  %15 = trunc i8 %14 to i1
  %16 = load ptr, ptr %5, align 8
  %17 = getelementptr inbounds nuw %struct.RTEPermissionInfo, ptr %16, i32 0, i32 2
  %18 = zext i1 %15 to i8
  store i8 %18, ptr %17, align 8
  %19 = load ptr, ptr %3, align 8
  %20 = load ptr, ptr %19, align 8
  %21 = load ptr, ptr %5, align 8
  %22 = call ptr @lappend(ptr noundef %20, ptr noundef %21)
  %23 = load ptr, ptr %3, align 8
  store ptr %22, ptr %23, align 8
  %24 = load ptr, ptr %3, align 8
  %25 = load ptr, ptr %24, align 8
  %26 = call i32 @list_length(ptr noundef %25)
  %27 = load ptr, ptr %4, align 8
  %28 = getelementptr inbounds nuw %struct.RangeTblEntry, ptr %27, i32 0, i32 8
  store i32 %26, ptr %28, align 8
  %29 = load ptr, ptr %5, align 8
  call void @llvm.lifetime.end.p0(i64 8, ptr %5) #8
  ret ptr %29
}

; Function Attrs: inlinehint nounwind uwtable
define internal ptr @newNode(i64 noundef %0, i32 noundef %1) #6 {
  %3 = alloca i64, align 8
  %4 = alloca i32, align 4
  %5 = alloca ptr, align 8
  store i64 %0, ptr %3, align 8
  store i32 %1, ptr %4, align 4
  call void @llvm.lifetime.start.p0(i64 8, ptr %5) #8
  %6 = load i64, ptr %3, align 8
  %7 = call ptr @palloc0(i64 noundef %6)
  store ptr %7, ptr %5, align 8
  %8 = load i32, ptr %4, align 4
  %9 = load ptr, ptr %5, align 8
  %10 = getelementptr inbounds nuw %struct.Node, ptr %9, i32 0, i32 0
  store i32 %8, ptr %10, align 4
  %11 = load ptr, ptr %5, align 8
  call void @llvm.lifetime.end.p0(i64 8, ptr %5) #8
  ret ptr %11
}

; Function Attrs: nounwind uwtable
define dso_local ptr @addRangeTableEntryForRelation(ptr noundef %0, ptr noundef %1, i32 noundef %2, ptr noundef %3, i1 noundef zeroext %4, i1 noundef zeroext %5) #0 {
  %7 = alloca ptr, align 8
  %8 = alloca ptr, align 8
  %9 = alloca i32, align 4
  %10 = alloca ptr, align 8
  %11 = alloca i8, align 1
  %12 = alloca i8, align 1
  %13 = alloca ptr, align 8
  %14 = alloca ptr, align 8
  %15 = alloca ptr, align 8
  store ptr %0, ptr %7, align 8
  store ptr %1, ptr %8, align 8
  store i32 %2, ptr %9, align 4
  store ptr %3, ptr %10, align 8
  %16 = zext i1 %4 to i8
  store i8 %16, ptr %11, align 1
  %17 = zext i1 %5 to i8
  store i8 %17, ptr %12, align 1
  call void @llvm.lifetime.start.p0(i64 8, ptr %13) #8
  %18 = call ptr @newNode(i64 noundef 224, i32 noundef 101)
  store ptr %18, ptr %13, align 8
  call void @llvm.lifetime.start.p0(i64 8, ptr %14) #8
  call void @llvm.lifetime.start.p0(i64 8, ptr %15) #8
  %19 = load ptr, ptr %10, align 8
  %20 = icmp ne ptr %19, null
  br i1 %20, label %21, label %25

21:                                               ; preds = %6
  %22 = load ptr, ptr %10, align 8
  %23 = getelementptr inbounds nuw %struct.Alias, ptr %22, i32 0, i32 1
  %24 = load ptr, ptr %23, align 8
  br label %32

25:                                               ; preds = %6
  %26 = load ptr, ptr %8, align 8
  %27 = getelementptr inbounds nuw %struct.RelationData, ptr %26, i32 0, i32 13
  %28 = load ptr, ptr %27, align 8
  %29 = getelementptr inbounds nuw %struct.FormData_pg_class, ptr %28, i32 0, i32 1
  %30 = getelementptr inbounds nuw %struct.nameData, ptr %29, i32 0, i32 0
  %31 = getelementptr inbounds [64 x i8], ptr %30, i64 0, i64 0
  br label %32

32:                                               ; preds = %25, %21
  %33 = phi ptr [ %24, %21 ], [ %31, %25 ]
  store ptr %33, ptr %15, align 8
  %34 = load ptr, ptr %13, align 8
  %35 = getelementptr inbounds nuw %struct.RangeTblEntry, ptr %34, i32 0, i32 3
  store i32 0, ptr %35, align 8
  %36 = load ptr, ptr %10, align 8
  %37 = load ptr, ptr %13, align 8
  %38 = getelementptr inbounds nuw %struct.RangeTblEntry, ptr %37, i32 0, i32 1
  store ptr %36, ptr %38, align 8
  %39 = load ptr, ptr %8, align 8
  %40 = getelementptr inbounds nuw %struct.RelationData, ptr %39, i32 0, i32 15
  %41 = load i32, ptr %40, align 8
  %42 = load ptr, ptr %13, align 8
  %43 = getelementptr inbounds nuw %struct.RangeTblEntry, ptr %42, i32 0, i32 4
  store i32 %41, ptr %43, align 4
  %44 = load i8, ptr %11, align 1, !range !6, !noundef !7
  %45 = trunc i8 %44 to i1
  %46 = load ptr, ptr %13, align 8
  %47 = getelementptr inbounds nuw %struct.RangeTblEntry, ptr %46, i32 0, i32 5
  %48 = zext i1 %45 to i8
  store i8 %48, ptr %47, align 8
  %49 = load ptr, ptr %8, align 8
  %50 = getelementptr inbounds nuw %struct.RelationData, ptr %49, i32 0, i32 13
  %51 = load ptr, ptr %50, align 8
  %52 = getelementptr inbounds nuw %struct.FormData_pg_class, ptr %51, i32 0, i32 16
  %53 = load i8, ptr %52, align 1
  %54 = load ptr, ptr %13, align 8
  %55 = getelementptr inbounds nuw %struct.RangeTblEntry, ptr %54, i32 0, i32 6
  store i8 %53, ptr %55, align 1
  %56 = load i32, ptr %9, align 4
  %57 = load ptr, ptr %13, align 8
  %58 = getelementptr inbounds nuw %struct.RangeTblEntry, ptr %57, i32 0, i32 7
  store i32 %56, ptr %58, align 4
  %59 = load ptr, ptr %15, align 8
  %60 = call ptr @makeAlias(ptr noundef %59, ptr noundef null)
  %61 = load ptr, ptr %13, align 8
  %62 = getelementptr inbounds nuw %struct.RangeTblEntry, ptr %61, i32 0, i32 2
  store ptr %60, ptr %62, align 8
  %63 = load ptr, ptr %8, align 8
  %64 = getelementptr inbounds nuw %struct.RelationData, ptr %63, i32 0, i32 14
  %65 = load ptr, ptr %64, align 8
  %66 = load ptr, ptr %10, align 8
  %67 = load ptr, ptr %13, align 8
  %68 = getelementptr inbounds nuw %struct.RangeTblEntry, ptr %67, i32 0, i32 2
  %69 = load ptr, ptr %68, align 8
  call void @buildRelationAliases(ptr noundef %65, ptr noundef %66, ptr noundef %69)
  %70 = load ptr, ptr %13, align 8
  %71 = getelementptr inbounds nuw %struct.RangeTblEntry, ptr %70, i32 0, i32 31
  store i8 0, ptr %71, align 8
  %72 = load i8, ptr %12, align 1, !range !6, !noundef !7
  %73 = trunc i8 %72 to i1
  %74 = load ptr, ptr %13, align 8
  %75 = getelementptr inbounds nuw %struct.RangeTblEntry, ptr %74, i32 0, i32 32
  %76 = zext i1 %73 to i8
  store i8 %76, ptr %75, align 1
  %77 = load ptr, ptr %7, align 8
  %78 = getelementptr inbounds nuw %struct.ParseState, ptr %77, i32 0, i32 5
  %79 = load ptr, ptr %13, align 8
  %80 = call ptr @addRTEPermissionInfo(ptr noundef %78, ptr noundef %79)
  store ptr %80, ptr %14, align 8
  %81 = load ptr, ptr %14, align 8
  %82 = getelementptr inbounds nuw %struct.RTEPermissionInfo, ptr %81, i32 0, i32 3
  store i64 2, ptr %82, align 8
  %83 = load ptr, ptr %7, align 8
  %84 = getelementptr inbounds nuw %struct.ParseState, ptr %83, i32 0, i32 4
  %85 = load ptr, ptr %84, align 8
  %86 = load ptr, ptr %13, align 8
  %87 = call ptr @lappend(ptr noundef %85, ptr noundef %86)
  %88 = load ptr, ptr %7, align 8
  %89 = getelementptr inbounds nuw %struct.ParseState, ptr %88, i32 0, i32 4
  store ptr %87, ptr %89, align 8
  %90 = load ptr, ptr %13, align 8
  %91 = load ptr, ptr %7, align 8
  %92 = getelementptr inbounds nuw %struct.ParseState, ptr %91, i32 0, i32 4
  %93 = load ptr, ptr %92, align 8
  %94 = call i32 @list_length(ptr noundef %93)
  %95 = load ptr, ptr %14, align 8
  %96 = load ptr, ptr %8, align 8
  %97 = getelementptr inbounds nuw %struct.RelationData, ptr %96, i32 0, i32 14
  %98 = load ptr, ptr %97, align 8
  %99 = call ptr @buildNSItemFromTupleDesc(ptr noundef %90, i32 noundef %94, ptr noundef %95, ptr noundef %98)
  call void @llvm.lifetime.end.p0(i64 8, ptr %15) #8
  call void @llvm.lifetime.end.p0(i64 8, ptr %14) #8
  call void @llvm.lifetime.end.p0(i64 8, ptr %13) #8
  ret ptr %99
}