; Function Attrs: nounwind uwtable
define dso_local noundef ptr @addRangeTableEntryForRelation(ptr noundef captures(none) %0, ptr noundef readonly captures(none) %1, i32 noundef %2, ptr noundef %3, i1 noundef zeroext %4, i1 noundef zeroext %5) local_unnamed_addr #0 {
  %7 = tail call noundef ptr @palloc0(i64 noundef 224) #11
  store i32 101, ptr %7, align 4
  %.not = icmp eq ptr %3, null
  br i1 %.not, label %11, label %8

8:                                                ; preds = %6
  %9 = getelementptr inbounds nuw i8, ptr %3, i64 8
  %10 = load ptr, ptr %9, align 8
  br label %15

11:                                               ; preds = %6
  %12 = getelementptr inbounds nuw i8, ptr %1, i64 56
  %13 = load ptr, ptr %12, align 8
  %14 = getelementptr inbounds nuw i8, ptr %13, i64 4
  br label %15

15:                                               ; preds = %11, %8
  %16 = phi ptr [ %10, %8 ], [ %14, %11 ]
  %17 = zext i1 %5 to i8
  %18 = zext i1 %4 to i8
  %19 = getelementptr inbounds nuw i8, ptr %7, i64 24
  store i32 0, ptr %19, align 8
  %20 = getelementptr inbounds nuw i8, ptr %7, i64 8
  store ptr %3, ptr %20, align 8
  %21 = getelementptr inbounds nuw i8, ptr %1, i64 72
  %22 = load i32, ptr %21, align 8
  %23 = getelementptr inbounds nuw i8, ptr %7, i64 28
  store i32 %22, ptr %23, align 4
  %24 = getelementptr inbounds nuw i8, ptr %7, i64 32
  store i8 %18, ptr %24, align 8
  %25 = getelementptr inbounds nuw i8, ptr %1, i64 56
  %26 = load ptr, ptr %25, align 8
  %27 = getelementptr inbounds nuw i8, ptr %26, i64 115
  %28 = load i8, ptr %27, align 1
  %29 = getelementptr inbounds nuw i8, ptr %7, i64 33
  store i8 %28, ptr %29, align 1
  %30 = getelementptr inbounds nuw i8, ptr %7, i64 36
  store i32 %2, ptr %30, align 4
  %31 = tail call ptr @makeAlias(ptr noundef %16, ptr noundef null) #11
  %32 = getelementptr inbounds nuw i8, ptr %7, i64 16
  store ptr %31, ptr %32, align 8
  %33 = getelementptr inbounds nuw i8, ptr %1, i64 64
  %34 = load ptr, ptr %33, align 8
  tail call fastcc void @buildRelationAliases(ptr noundef %34, ptr noundef %3, ptr noundef %31)
  %35 = getelementptr inbounds nuw i8, ptr %7, i64 208
  store i8 0, ptr %35, align 8
  %36 = getelementptr inbounds nuw i8, ptr %7, i64 209
  store i8 %17, ptr %36, align 1
  %37 = getelementptr inbounds nuw i8, ptr %0, i64 32
  %38 = tail call noundef ptr @palloc0(i64 noundef 56) #11
  store i32 102, ptr %38, align 4
  %39 = load i32, ptr %23, align 4
  %40 = getelementptr inbounds nuw i8, ptr %38, i64 4
  store i32 %39, ptr %40, align 4
  %41 = load i8, ptr %24, align 8, !range !4, !noundef !5
  %42 = getelementptr inbounds nuw i8, ptr %38, i64 8
  store i8 %41, ptr %42, align 8
  %43 = load ptr, ptr %37, align 8
  %44 = tail call ptr @lappend(ptr noundef %43, ptr noundef nonnull %38) #11
  store ptr %44, ptr %37, align 8
  %.not.i.i = icmp eq ptr %44, null
  br i1 %.not.i.i, label %addRTEPermissionInfo.exit, label %45

45:                                               ; preds = %15
  %46 = getelementptr inbounds nuw i8, ptr %44, i64 4
  %47 = load i32, ptr %46, align 4
  br label %addRTEPermissionInfo.exit

addRTEPermissionInfo.exit:                        ; preds = %15, %45
  %48 = phi i32 [ %47, %45 ], [ 0, %15 ]
  %49 = getelementptr inbounds nuw i8, ptr %7, i64 40
  store i32 %48, ptr %49, align 8
  %50 = getelementptr inbounds nuw i8, ptr %38, i64 16
  store i64 2, ptr %50, align 8
  %51 = getelementptr inbounds nuw i8, ptr %0, i64 24
  %52 = load ptr, ptr %51, align 8
  %53 = tail call ptr @lappend(ptr noundef %52, ptr noundef nonnull %7) #11
  store ptr %53, ptr %51, align 8
  %.not.i = icmp eq ptr %53, null
  br i1 %.not.i, label %list_length.exit, label %54

54:                                               ; preds = %addRTEPermissionInfo.exit
  %55 = getelementptr inbounds nuw i8, ptr %53, i64 4
  %56 = load i32, ptr %55, align 4
  br label %list_length.exit

list_length.exit:                                 ; preds = %addRTEPermissionInfo.exit, %54
  %57 = phi i32 [ %56, %54 ], [ 0, %addRTEPermissionInfo.exit ]
  %58 = load ptr, ptr %33, align 8
  %59 = load i32, ptr %58, align 8
  %60 = sext i32 %59 to i64
  %61 = shl nsw i64 %60, 5
  %62 = tail call ptr @palloc0(i64 noundef %61) #11
  %invariant.gep.i = getelementptr i8, ptr %58, i64 24
  %63 = icmp sgt i32 %59, 0
  br i1 %63, label %.lr.ph.preheader.i, label %buildNSItemFromTupleDesc.exit

.lr.ph.preheader.i:                               ; preds = %list_length.exit
  %wide.trip.count.i = zext nneg i32 %59 to i64
  br label %.lr.ph.i

.lr.ph.i:                                         ; preds = %87, %.lr.ph.preheader.i
  %indvars.iv.i = phi i64 [ 0, %.lr.ph.preheader.i ], [ %indvars.iv.next.i, %87 ]
  %64 = load i32, ptr %58, align 8
  %65 = sext i32 %64 to i64
  %66 = shl nsw i64 %65, 4
  %gep.i = getelementptr i8, ptr %invariant.gep.i, i64 %66
  %67 = getelementptr inbounds nuw %struct.FormData_pg_attribute, ptr %gep.i, i64 %indvars.iv.i
  %68 = getelementptr inbounds nuw i8, ptr %67, i64 91
  %69 = load i8, ptr %68, align 1, !range !4, !noundef !5
  %70 = trunc nuw i8 %69 to i1
  br i1 %70, label %87, label %71

71:                                               ; preds = %.lr.ph.i
  %72 = getelementptr inbounds nuw %struct.ParseNamespaceColumn, ptr %62, i64 %indvars.iv.i
  store i32 %57, ptr %72, align 4
  %73 = trunc i64 %indvars.iv.i to i16
  %74 = add i16 %73, 1
  %75 = getelementptr inbounds nuw i8, ptr %72, i64 4
  store i16 %74, ptr %75, align 4
  %76 = getelementptr inbounds nuw i8, ptr %67, i64 68
  %77 = load i32, ptr %76, align 4
  %78 = getelementptr inbounds nuw i8, ptr %72, i64 8
  store i32 %77, ptr %78, align 4
  %79 = getelementptr inbounds nuw i8, ptr %67, i64 76
  %80 = load i32, ptr %79, align 4
  %81 = getelementptr inbounds nuw i8, ptr %72, i64 12
  store i32 %80, ptr %81, align 4
  %82 = getelementptr inbounds nuw i8, ptr %67, i64 96
  %83 = load i32, ptr %82, align 4
  %84 = getelementptr inbounds nuw i8, ptr %72, i64 16
  store i32 %83, ptr %84, align 4
  %85 = getelementptr inbounds nuw i8, ptr %72, i64 24
  store i32 %57, ptr %85, align 4
  %86 = getelementptr inbounds nuw i8, ptr %72, i64 28
  store i16 %74, ptr %86, align 4
  br label %87

87:                                               ; preds = %71, %.lr.ph.i
  %indvars.iv.next.i = add nuw nsw i64 %indvars.iv.i, 1
  %exitcond.not.i = icmp eq i64 %indvars.iv.next.i, %wide.trip.count.i
  br i1 %exitcond.not.i, label %buildNSItemFromTupleDesc.exit, label %.lr.ph.i, !llvm.loop !16

buildNSItemFromTupleDesc.exit:                    ; preds = %87, %list_length.exit
  %88 = tail call ptr @palloc(i64 noundef 48) #11
  %89 = load ptr, ptr %32, align 8
  store ptr %89, ptr %88, align 8
  %90 = getelementptr inbounds nuw i8, ptr %88, i64 8
  store ptr %7, ptr %90, align 8
  %91 = getelementptr inbounds nuw i8, ptr %88, i64 16
  store i32 %57, ptr %91, align 8
  %92 = getelementptr inbounds nuw i8, ptr %88, i64 24
  store ptr %38, ptr %92, align 8
  %93 = getelementptr inbounds nuw i8, ptr %88, i64 32
  store ptr %62, ptr %93, align 8
  %94 = getelementptr inbounds nuw i8, ptr %88, i64 40
  store i8 1, ptr %94, align 8
  %95 = getelementptr inbounds nuw i8, ptr %88, i64 41
  store i8 1, ptr %95, align 1
  %96 = getelementptr inbounds nuw i8, ptr %88, i64 42
  store i8 0, ptr %96, align 2
  %97 = getelementptr inbounds nuw i8, ptr %88, i64 43
  store i8 1, ptr %97, align 1
  %98 = getelementptr inbounds nuw i8, ptr %88, i64 44
  store i32 0, ptr %98, align 4
  ret ptr %88
}